target datalayout = "e-m:e-p270:32:32-p271:32:32-p272:64:64-i64:64-i128:128-f80:128-n8:16:32:64-S128"
target triple = "x86_64-pc-linux-gnu"

@.str.260 = private unnamed_addr constant [12 x i8] c"PMIX_MCA_%s\00", align 1
@.str.266 = private unnamed_addr constant [4 x i8] c"dl_\00", align 1
@.str.268 = private unnamed_addr constant [5 x i8] c"oob_\00", align 1
@.str.269 = private unnamed_addr constant [7 x i8] c"hwloc_\00", align 1
@.str.270 = private unnamed_addr constant [4 x i8] c"if_\00", align 1
@.str.278 = private unnamed_addr constant [16 x i8] c"PMIX_MCA_pdl_%s\00", align 1
@.str.279 = private unnamed_addr constant [16 x i8] c"PMIX_MCA_ptl_%s\00", align 1
@.str.280 = private unnamed_addr constant [16 x i8] c"PMIX_MCA_pif_%s\00", align 1

; Function Attrs: nounwind uwtable
define internal zeroext i1 @check_pmix_overlap(ptr noundef %0, ptr noundef %1) #0 {
  %3 = alloca i1, align 1
  %4 = alloca ptr, align 8
  %5 = alloca ptr, align 8
  %6 = alloca ptr, align 8
  %7 = alloca i32, align 4
  store ptr %0, ptr %4, align 8, !tbaa !20
  store ptr %1, ptr %5, align 8, !tbaa !20
  call void @llvm.lifetime.start.p0(i64 8, ptr %6) #11
  %8 = load ptr, ptr %4, align 8, !tbaa !20
  %9 = call i32 @strncmp(ptr noundef %8, ptr noundef @.str.266, i64 noundef 3) #13
  %10 = icmp eq i32 0, %9
  br i1 %10, label %11, label %19

11:                                               ; preds = %2
  %12 = load ptr, ptr %4, align 8, !tbaa !20
  %13 = getelementptr inbounds i8, ptr %12, i64 3
  %14 = call i32 (ptr, ptr, ...) @pmix_asprintf(ptr noundef %6, ptr noundef @.str.278, ptr noundef %13)
  %15 = load ptr, ptr %6, align 8, !tbaa !20
  %16 = load ptr, ptr %5, align 8, !tbaa !20
  %17 = call i32 @setenv(ptr noundef %15, ptr noundef %16, i32 noundef 0) #11
  %18 = load ptr, ptr %6, align 8, !tbaa !20
  call void @free(ptr noundef %18) #11
  store i1 true, ptr %3, align 1
  store i32 1, ptr %7, align 4
  br label %58

19:                                               ; preds = %2
  %20 = load ptr, ptr %4, align 8, !tbaa !20
  %21 = call i32 @strncmp(ptr noundef %20, ptr noundef @.str.268, i64 noundef 4) #13
  %22 = icmp eq i32 0, %21
  br i1 %22, label %23, label %31

23:                                               ; preds = %19
  %24 = load ptr, ptr %4, align 8, !tbaa !20
  %25 = getelementptr inbounds i8, ptr %24, i64 4
  %26 = call i32 (ptr, ptr, ...) @pmix_asprintf(ptr noundef %6, ptr noundef @.str.279, ptr noundef %25)
  %27 = load ptr, ptr %6, align 8, !tbaa !20
  %28 = load ptr, ptr %5, align 8, !tbaa !20
  %29 = call i32 @setenv(ptr noundef %27, ptr noundef %28, i32 noundef 0) #11
  %30 = load ptr, ptr %6, align 8, !tbaa !20
  call void @free(ptr noundef %30) #11
  store i1 true, ptr %3, align 1
  store i32 1, ptr %7, align 4
  br label %58

31:                                               ; preds = %19
  %32 = load ptr, ptr %4, align 8, !tbaa !20
  %33 = call i32 @strncmp(ptr noundef %32, ptr noundef @.str.269, i64 noundef 6) #13
  %34 = icmp eq i32 0, %33
  br i1 %34, label %35, label %42

35:                                               ; preds = %31
  %36 = load ptr, ptr %4, align 8, !tbaa !20
  %37 = call i32 (ptr, ptr, ...) @pmix_asprintf(ptr noundef %6, ptr noundef @.str.260, ptr noundef %36)
  %38 = load ptr, ptr %6, align 8, !tbaa !20
  %39 = load ptr, ptr %5, align 8, !tbaa !20
  %40 = call i32 @setenv(ptr noundef %38, ptr noundef %39, i32 noundef 0) #11
  %41 = load ptr, ptr %6, align 8, !tbaa !20
  call void @free(ptr noundef %41) #11
  store i1 true, ptr %3, align 1
  store i32 1, ptr %7, align 4
  br label %58

42:                                               ; preds = %31
  %43 = load ptr, ptr %4, align 8, !tbaa !20
  %44 = call i32 @strncmp(ptr noundef %43, ptr noundef @.str.270, i64 noundef 3) #13
  %45 = icmp eq i32 0, %44
  br i1 %45, label %46, label %54

46:                                               ; preds = %42
  %47 = load ptr, ptr %4, align 8, !tbaa !20
  %48 = getelementptr inbounds i8, ptr %47, i64 3
  %49 = call i32 (ptr, ptr, ...) @pmix_asprintf(ptr noundef %6, ptr noundef @.str.280, ptr noundef %48)
  %50 = load ptr, ptr %6, align 8, !tbaa !20
  %51 = load ptr, ptr %5, align 8, !tbaa !20
  %52 = call i32 @setenv(ptr noundef %50, ptr noundef %51, i32 noundef 0) #11
  %53 = load ptr, ptr %6, align 8, !tbaa !20
  call void @free(ptr noundef %53) #11
  store i1 true, ptr %3, align 1
  store i32 1, ptr %7, align 4
  br label %58

54:                                               ; preds = %42
  br label %55

55:                                               ; preds = %54
  br label %56

56:                                               ; preds = %55
  br label %57

57:                                               ; preds = %56
  store i1 false, ptr %3, align 1
  store i32 1, ptr %7, align 4
  br label %58

58:                                               ; preds = %57, %46, %35, %23, %11
  call void @llvm.lifetime.end.p0(i64 8, ptr %6) #11
  %59 = load i1, ptr %3, align 1
  ret i1 %59
}