; Function Attrs: nounwind uwtable
define internal fastcc void @check_pmix_overlap(ptr noundef %0, ptr noundef %1) unnamed_addr #0 {
sub_0:
  %2 = alloca ptr, align 8
  call void @llvm.lifetime.start.p0(i64 8, ptr nonnull %2) #18
  %3 = load i8, ptr %0, align 1
  %.not = icmp eq i8 %3, 100
  br i1 %.not, label %sub_1, label %.tail.thread

sub_1:                                            ; preds = %sub_0
  %4 = getelementptr inbounds nuw i8, ptr %0, i64 1
  %5 = load i8, ptr %4, align 1
  %.not18 = icmp eq i8 %5, 108
  br i1 %.not18, label %.tail, label %.tail.thread

.tail:                                            ; preds = %sub_1
  %6 = getelementptr inbounds nuw i8, ptr %0, i64 2
  %7 = load i8, ptr %6, align 1
  %8 = icmp eq i8 %7, 95
  br i1 %8, label %9, label %.tail.thread

9:                                                ; preds = %.tail
  %10 = getelementptr inbounds nuw i8, ptr %0, i64 3
  %11 = call i32 (ptr, ptr, ...) @pmix_asprintf(ptr noundef nonnull %2, ptr noundef nonnull @.str.278, ptr noundef nonnull %10) #18
  br label %.tail13.thread.sink.split

.tail.thread:                                     ; preds = %sub_1, %sub_0, %.tail
  %12 = tail call i32 @strncmp(ptr noundef nonnull dereferenceable(1) %0, ptr noundef nonnull dereferenceable(5) @.str.268, i64 noundef 4) #20
  %13 = icmp eq i32 %12, 0
  br i1 %13, label %14, label %17

14:                                               ; preds = %.tail.thread
  %15 = getelementptr inbounds nuw i8, ptr %0, i64 4
  %16 = call i32 (ptr, ptr, ...) @pmix_asprintf(ptr noundef nonnull %2, ptr noundef nonnull @.str.279, ptr noundef nonnull %15) #18
  br label %.tail13.thread.sink.split

17:                                               ; preds = %.tail.thread
  %18 = tail call i32 @strncmp(ptr noundef nonnull dereferenceable(1) %0, ptr noundef nonnull dereferenceable(7) @.str.269, i64 noundef 6) #20
  %19 = icmp eq i32 %18, 0
  br i1 %19, label %20, label %sub_014

20:                                               ; preds = %17
  %21 = call i32 (ptr, ptr, ...) @pmix_asprintf(ptr noundef nonnull %2, ptr noundef nonnull @.str.260, ptr noundef nonnull %0) #18
  br label %.tail13.thread.sink.split

sub_014:                                          ; preds = %17
  %.not19 = icmp eq i8 %3, 105
  br i1 %.not19, label %sub_115, label %.tail13.thread

sub_115:                                          ; preds = %sub_014
  %22 = getelementptr inbounds nuw i8, ptr %0, i64 1
  %23 = load i8, ptr %22, align 1
  %.not20 = icmp eq i8 %23, 102
  br i1 %.not20, label %.tail13, label %.tail13.thread

.tail13:                                          ; preds = %sub_115
  %24 = getelementptr inbounds nuw i8, ptr %0, i64 2
  %25 = load i8, ptr %24, align 1
  %26 = icmp eq i8 %25, 95
  br i1 %26, label %27, label %.tail13.thread

27:                                               ; preds = %.tail13
  %28 = getelementptr inbounds nuw i8, ptr %0, i64 3
  %29 = call i32 (ptr, ptr, ...) @pmix_asprintf(ptr noundef nonnull %2, ptr noundef nonnull @.str.280, ptr noundef nonnull %28) #18
  br label %.tail13.thread.sink.split

.tail13.thread.sink.split:                        ; preds = %9, %14, %20, %27
  %30 = load ptr, ptr %2, align 8, !tbaa !4
  %31 = call i32 @setenv(ptr noundef %30, ptr noundef %1, i32 noundef 0) #18
  %32 = load ptr, ptr %2, align 8, !tbaa !4
  call void @free(ptr noundef %32) #18
  br label %.tail13.thread

.tail13.thread:                                   ; preds = %.tail13.thread.sink.split, %sub_115, %sub_014, %.tail13
  call void @llvm.lifetime.end.p0(i64 8, ptr nonnull %2) #18
  ret void
}